; Function Attrs: mustprogress uwtable
define hidden noundef zeroext i1 @_ZNK19OpenColorIO_v2_5dev21GradingRGBCurveOpData6equalsERKNS_6OpDataE(ptr noundef nonnull align 8 dereferenceable(200) %0, ptr noundef nonnull align 8 dereferenceable(168) %1) unnamed_addr #3 align 2 {
  %3 = tail call noundef zeroext i1 @_ZNK19OpenColorIO_v2_5dev6OpData6equalsERKS0_(ptr noundef nonnull align 8 dereferenceable(168) %0, ptr noundef nonnull align 8 dereferenceable(168) %1)
  br i1 %3, label %4, label %25

4:                                                ; preds = %2
  %5 = getelementptr inbounds nuw i8, ptr %0, i64 196
  %6 = load i32, ptr %5, align 4, !tbaa !62
  %7 = getelementptr inbounds nuw i8, ptr %1, i64 196
  %8 = load i32, ptr %7, align 4, !tbaa !62
  %.not = icmp eq i32 %6, %8
  br i1 %.not, label %9, label %25

9:                                                ; preds = %4
  %10 = getelementptr inbounds nuw i8, ptr %0, i64 168
  %11 = load i32, ptr %10, align 8, !tbaa !35
  %12 = getelementptr inbounds nuw i8, ptr %1, i64 168
  %13 = load i32, ptr %12, align 8, !tbaa !35
  %.not8 = icmp eq i32 %11, %13
  br i1 %.not8, label %14, label %25

14:                                               ; preds = %9
  %15 = getelementptr inbounds nuw i8, ptr %0, i64 192
  %16 = load i8, ptr %15, align 8, !tbaa !75, !range !76, !noundef !77
  %17 = getelementptr inbounds nuw i8, ptr %1, i64 192
  %18 = load i8, ptr %17, align 8, !tbaa !75, !range !76, !noundef !77
  %.not9 = icmp eq i8 %16, %18
  br i1 %.not9, label %19, label %25

19:                                               ; preds = %14
  %20 = getelementptr inbounds nuw i8, ptr %0, i64 176
  %21 = load ptr, ptr %20, align 8, !tbaa !78
  %22 = getelementptr inbounds nuw i8, ptr %1, i64 176
  %23 = load ptr, ptr %22, align 8, !tbaa !78
  %24 = tail call noundef zeroext i1 @_ZNK19OpenColorIO_v2_5dev19DynamicPropertyImpl6equalsERKS0_(ptr noundef nonnull align 8 dereferenceable(13) %21, ptr noundef nonnull align 8 dereferenceable(13) %23)
  br label %25

25:                                               ; preds = %19, %14, %9, %4, %2
  %.0 = phi i1 [ false, %2 ], [ false, %14 ], [ false, %9 ], [ false, %4 ], [ %24, %19 ]
  ret i1 %.0
}